Certificate:
    Data:
        Version: 1 (0x0)
        Serial Number: 11188861137077909311 (0x9b46d1ec4cb3b73f)
    Signature Algorithm: sha256WithRSAEncryption
        Issuer: CN=localhost
        Validity
            Not Before: Feb 27 06:48:08 2022 GMT
            Not After : Mar 29 06:48:08 2022 GMT
        Subject: CN=localhost
        Subject Public Key Info:
            Public Key Algorithm: rsaEncryption
                Public-Key: (2048 bit)
                Modulus:
                    00:c5:80:10:38:40:2a:08:dc:d2:fb:84:cf:9c:e0:
                    fc:dc:47:21:af:79:b8:3c:1b:96:d2:c8:0c:0f:dc:
                    92:7b:a4:77:82:9d:b6:71:c6:fa:94:2d:a5:24:09:
                    75:03:75:06:bf:03:06:15:47:95:98:ab:47:21:20:
                    25:cc:94:11:32:cc:23:7f:20:a6:09:96:b9:6d:1e:
                    66:e0:16:f2:53:ef:58:f3:10:ea:da:d3:df:76:0f:
                    eb:2c:f1:b5:8c:62:4e:a0:a6:99:1f:d3:a2:bd:d9:
                    93:3b:6b:56:92:07:e8:63:1f:a8:a1:c3:53:3c:18:
                    ab:7f:2a:9c:45:00:8b:cd:62:ac:34:52:8a:48:9e:
                    55:9a:b8:ad:83:d6:d3:14:72:62:ba:38:f6:de:77:
                    e4:be:9d:fb:6b:65:87:5a:4a:08:86:33:d3:05:bc:
                    62:8c:77:8c:be:27:f8:4c:37:f3:dd:cb:c0:6f:ab:
                    fe:22:31:de:78:57:6c:22:e9:a4:56:6e:5e:99:88:
                    87:c4:bd:50:9e:17:d9:c0:c2:e7:bd:d8:39:29:06:
                    42:a0:51:b4:50:b3:af:16:f8:a9:21:e6:f7:48:ff:
                    13:81:65:03:bc:04:eb:6e:bd:a0:be:47:f2:1f:87:
                    40:24:12:6a:fa:ad:bb:34:56:5b:dd:dd:2e:ab:b4:
                    01:f5
                Exponent: 65537 (0x10001)
    Signature Algorithm: sha256WithRSAEncryption
         69:c2:6f:0d:16:41:04:05:6c:82:df:b8:b6:d1:96:05:6c:3c:
         3f:36:5a:d8:95:fa:31:4c:21:8b:23:49:2a:ee:58:c6:9a:97:
         5f:bc:66:6f:cb:cf:28:fb:e4:fc:ed:44:23:53:ea:ff:78:16:
         85:74:7a:6f:b3:85:37:0a:cd:d0:b5:66:2a:46:fd:e2:36:35:
         c6:fe:74:63:a1:33:41:08:ae:5d:23:18:df:57:65:94:e3:80:
         96:7b:69:a8:7f:17:ab:6a:61:fb:dc:ae:ef:e5:4c:5b:43:ae:
         81:b4:60:15:f8:7d:02:3c:85:0b:b3:30:4f:03:09:28:cb:63:
         00:04:05:85:7c:bd:49:b0:a3:fc:91:c6:cb:f9:7f:73:07:7f:
         a7:f4:d5:ab:f2:41:a5:5b:bf:da:92:d6:ab:19:70:0a:68:86:
         30:57:52:cd:dc:9b:78:72:df:d4:eb:22:9e:46:ba:fa:b6:bc:
         60:ab:24:ad:98:69:7f:7e:f3:05:17:39:7d:14:6e:d8:b9:dd:
         64:af:e9:f8:fb:69:61:c0:3e:3c:d1:dd:02:96:18:2b:8c:10:
         6b:19:da:cd:39:6a:3a:a0:e9:46:54:3f:ab:bf:ba:46:c9:86:
         f4:3a:13:d8:c9:f3:2f:ec:60:54:d4:0a:46:f8:ab:b0:62:93:
         88:37:51:ee
-----BEGIN CERTIFICATE-----
MIICpDCCAYwCCQCbRtHsTLO3PzANBgkqhkiG9w0BAQsFADAUMRIwEAYDVQQDDAls
b2NhbGhvc3QwHhcNMjIwMjI3MDY0ODA4WhcNMjIwMzI5MDY0ODA4WjAUMRIwEAYD
VQQDDAlsb2NhbGhvc3QwggEiMA0GCSqGSIb3DQEBAQUAA4IBDwAwggEKAoIBAQDF
gBA4QCoI3NL7hM+c4PzcRyGvebg8G5bSyAwP3JJ7pHeCnbZxxvqULaUkCXUDdQa/
AwYVR5WYq0chICXMlBEyzCN/IKYJlrltHmbgFvJT71jzEOra0992D+ss8bWMYk6g
ppkf06K92ZM7a1aSB+hjH6ihw1M8GKt/KpxFAIvNYqw0UopInlWauK2D1tMUcmK6
OPbed+S+nftrZYdaSgiGM9MFvGKMd4y+J/hMN/Pdy8Bvq/4iMd54V2wi6aRWbl6Z
iIfEvVCeF9nAwue92DkpBkKgUbRQs68W+Kkh5vdI/xOBZQO8BOtuvaC+R/Ifh0Ak
Emr6rbs0Vlvd3S6rtAH1AgMBAAEwDQYJKoZIhvcNAQELBQADggEBAGnCbw0WQQQF
bILfuLbRlgVsPD82WtiV+jFMIYsjSSruWMaal1+8Zm/Lzyj75PztRCNT6v94FoV0
em+zhTcKzdC1ZipG/eI2Ncb+dGOhM0EIrl0jGN9XZZTjgJZ7aah/F6tqYfvcru/l
TFtDroG0YBX4fQI8hQuzME8DCSjLYwAEBYV8vUmwo/yRxsv5f3MHf6f01avyQaVb
v9qS1qsZcApohjBXUs3cm3hy39TrIp5Guvq2vGCrJK2YaX9+8wUXOX0Ubti53WSv
6fj7aWHAPjzR3QKWGCuMEGsZ2s05ajqg6UZUP6u/ukbJhvQ6E9jJ8y/sYFTUCkb4
q7Bik4g3Ue4=
-----END CERTIFICATE-----
